target datalayout = "e-m:e-p270:32:32-p271:32:32-p272:64:64-i64:64-i128:128-f80:128-n8:16:32:64-S128"
target triple = "x86_64-pc-linux-gnu"

%struct.evhttp_connection = type { %struct.anon, ptr, %struct.event, ptr, i16, ptr, i16, ptr, i64, i64, i32, %struct.timeval, %struct.timeval, %struct.timeval, i32, i32, %struct.timeval, i32, ptr, %struct.evcon_requestq, ptr, ptr, ptr, ptr, %struct.event_callback, ptr, ptr, i32, ptr }
%struct.anon = type { ptr, ptr }
%struct.event = type { %struct.event_callback, %union.anon.1, i32, i16, i16, ptr, %union.anon.3, %struct.timeval }
%union.anon.1 = type { %struct.anon.2 }
%struct.anon.2 = type { ptr, ptr }
%union.anon.3 = type { %struct.anon.4 }
%struct.anon.4 = type { %struct.anon.5, %struct.timeval }
%struct.anon.5 = type { ptr, ptr }
%struct.timeval = type { i64, i64 }
%struct.evcon_requestq = type { ptr, ptr }
%struct.event_callback = type { %struct.anon.0, i16, i8, i8, %union.anon, ptr }
%struct.anon.0 = type { ptr, ptr }
%union.anon = type { ptr }

@event_debug_logging_mask_ = external global i32, align 4
@.str.95 = private unnamed_addr constant [31 x i8] c"%s: preparing to write buffer\0A\00", align 1
@__func__.evhttp_write_buffer = private unnamed_addr constant [20 x i8] c"evhttp_write_buffer\00", align 1

; Function Attrs: nounwind uwtable
define internal void @evhttp_write_buffer(ptr noundef %0, ptr noundef %1, ptr noundef %2) #0 {
  %4 = alloca ptr, align 8
  %5 = alloca ptr, align 8
  %6 = alloca ptr, align 8
  store ptr %0, ptr %4, align 8
  store ptr %1, ptr %5, align 8
  store ptr %2, ptr %6, align 8
  br label %7

7:                                                ; preds = %3
  %8 = load i32, ptr @event_debug_logging_mask_, align 4
  %9 = icmp ne i32 %8, 0
  br i1 %9, label %10, label %11

10:                                               ; preds = %7
  call void (ptr, ...) @event_debugx_(ptr noundef @.str.95, ptr noundef @__func__.evhttp_write_buffer)
  br label %11

11:                                               ; preds = %10, %7
  br label %12

12:                                               ; preds = %11
  %13 = load ptr, ptr %5, align 8
  %14 = load ptr, ptr %4, align 8
  %15 = getelementptr inbounds nuw %struct.evhttp_connection, ptr %14, i32 0, i32 20
  store ptr %13, ptr %15, align 8
  %16 = load ptr, ptr %6, align 8
  %17 = load ptr, ptr %4, align 8
  %18 = getelementptr inbounds nuw %struct.evhttp_connection, ptr %17, i32 0, i32 21
  store ptr %16, ptr %18, align 8
  %19 = load ptr, ptr %4, align 8
  %20 = getelementptr inbounds nuw %struct.evhttp_connection, ptr %19, i32 0, i32 1
  %21 = load ptr, ptr %20, align 8
  %22 = load ptr, ptr %4, align 8
  call void @bufferevent_setcb(ptr noundef %21, ptr noundef null, ptr noundef @evhttp_write_cb, ptr noundef @evhttp_error_cb, ptr noundef %22)
  %23 = load ptr, ptr %4, align 8
  %24 = getelementptr inbounds nuw %struct.evhttp_connection, ptr %23, i32 0, i32 1
  %25 = load ptr, ptr %24, align 8
  %26 = call i32 @bufferevent_enable(ptr noundef %25, i16 noundef signext 6)
  ret void
}

; Function Attrs: nounwind uwtable
define internal void @evhttp_connection_stop_detectclose(ptr noundef %0) #0 {
  %2 = alloca ptr, align 8
  store ptr %0, ptr %2, align 8
  %3 = load ptr, ptr %2, align 8
  %4 = getelementptr inbounds nuw %struct.evhttp_connection, ptr %3, i32 0, i32 10
  %5 = load i32, ptr %4, align 8
  %6 = and i32 %5, -5
  store i32 %6, ptr %4, align 8
  %7 = load ptr, ptr %2, align 8
  %8 = getelementptr inbounds nuw %struct.evhttp_connection, ptr %7, i32 0, i32 1
  %9 = load ptr, ptr %8, align 8
  %10 = call i32 @bufferevent_disable(ptr noundef %9, i16 noundef signext 2)
  ret void
}

; Function Attrs: nounwind uwtable
define internal void @evhttp_request_dispatch(ptr noundef %0) #0 {
  %2 = alloca ptr, align 8
  %3 = alloca ptr, align 8
  %4 = alloca i32, align 4
  store ptr %0, ptr %2, align 8
  call void @llvm.lifetime.start.p0(i64 8, ptr %3) #11
  %5 = load ptr, ptr %2, align 8
  %6 = getelementptr inbounds nuw %struct.evhttp_connection, ptr %5, i32 0, i32 19
  %7 = getelementptr inbounds nuw %struct.evcon_requestq, ptr %6, i32 0, i32 0
  %8 = load ptr, ptr %7, align 8
  store ptr %8, ptr %3, align 8
  %9 = load ptr, ptr %3, align 8
  %10 = icmp eq ptr %9, null
  br i1 %10, label %11, label %12

11:                                               ; preds = %1
  store i32 1, ptr %4, align 4
  br label %25

12:                                               ; preds = %1
  br label %13

13:                                               ; preds = %12
  br label %14

14:                                               ; preds = %13
  br label %15

15:                                               ; preds = %14
  %16 = load ptr, ptr %2, align 8
  call void @evhttp_connection_stop_detectclose(ptr noundef %16)
  br label %17

17:                                               ; preds = %15
  br label %18

18:                                               ; preds = %17
  br label %19

19:                                               ; preds = %18
  %20 = load ptr, ptr %2, align 8
  %21 = getelementptr inbounds nuw %struct.evhttp_connection, ptr %20, i32 0, i32 17
  store i32 7, ptr %21, align 8
  %22 = load ptr, ptr %2, align 8
  %23 = load ptr, ptr %3, align 8
  call void @evhttp_make_header(ptr noundef %22, ptr noundef %23)
  %24 = load ptr, ptr %2, align 8
  call void @evhttp_write_buffer(ptr noundef %24, ptr noundef @evhttp_write_connectioncb, ptr noundef null)
  store i32 0, ptr %4, align 4
  br label %25

25:                                               ; preds = %19, %11
  call void @llvm.lifetime.end.p0(i64 8, ptr %3) #11
  %26 = load i32, ptr %4, align 4
  switch i32 %26, label %28 [
    i32 0, label %27
    i32 1, label %27
  ]

27:                                               ; preds = %25, %25
  ret void

28:                                               ; preds = %25
  unreachable
}