; Function Attrs: nounwind uwtable
define internal fastcc void @evhttp_request_dispatch(ptr noundef %0) unnamed_addr #0 {
  %2 = getelementptr inbounds nuw i8, ptr %0, i64 296
  %3 = load ptr, ptr %2, align 8
  %4 = icmp eq ptr %3, null
  br i1 %4, label %20, label %5

5:                                                ; preds = %1
  %6 = getelementptr inbounds nuw i8, ptr %0, i64 200
  %7 = load i32, ptr %6, align 8
  %8 = and i32 %7, -5
  store i32 %8, ptr %6, align 8
  %9 = getelementptr inbounds nuw i8, ptr %0, i64 16
  %10 = load ptr, ptr %9, align 8
  %11 = tail call i32 @bufferevent_disable(ptr noundef %10, i16 noundef signext 2) #18
  %12 = getelementptr inbounds nuw i8, ptr %0, i64 280
  store i32 7, ptr %12, align 8
  tail call fastcc void @evhttp_make_header(ptr noundef nonnull %0, ptr noundef nonnull %3)
  %13 = load i32, ptr @event_debug_logging_mask_, align 4
  %.not.i = icmp eq i32 %13, 0
  br i1 %.not.i, label %evhttp_write_buffer.exit, label %14

14:                                               ; preds = %5
  tail call void (ptr, ...) @event_debugx_(ptr noundef nonnull @.str.95, ptr noundef nonnull @__func__.evhttp_write_buffer) #18
  br label %evhttp_write_buffer.exit

evhttp_write_buffer.exit:                         ; preds = %5, %14
  %15 = getelementptr inbounds nuw i8, ptr %0, i64 312
  store ptr @evhttp_write_connectioncb, ptr %15, align 8
  %16 = getelementptr inbounds nuw i8, ptr %0, i64 320
  store ptr null, ptr %16, align 8
  %17 = load ptr, ptr %9, align 8
  tail call void @bufferevent_setcb(ptr noundef %17, ptr noundef null, ptr noundef nonnull @evhttp_write_cb, ptr noundef nonnull @evhttp_error_cb, ptr noundef nonnull %0) #18
  %18 = load ptr, ptr %9, align 8
  %19 = tail call i32 @bufferevent_enable(ptr noundef %18, i16 noundef signext 6) #18
  br label %20

20:                                               ; preds = %1, %evhttp_write_buffer.exit
  ret void
}